target datalayout = "e-m:e-p270:32:32-p271:32:32-p272:64:64-i64:64-i128:128-f80:128-n8:16:32:64-S128"
target triple = "x86_64-pc-linux-gnu"

%struct.adc_stream = type { ptr, i64, i64, ptr, i64, i64, ptr, ptr, i32, i16, i16, i32 }

; Function Attrs: nounwind uwtable
define i32 @adc_decompressInit(ptr noundef %0) #0 {
  %2 = alloca i32, align 4
  %3 = alloca ptr, align 8
  store ptr %0, ptr %3, align 8
  %4 = load ptr, ptr %3, align 8
  %5 = icmp eq ptr %4, null
  br i1 %5, label %6, label %7

6:                                                ; preds = %1
  store i32 -3, ptr %2, align 4
  br label %37

7:                                                ; preds = %1
  %8 = load ptr, ptr %3, align 8
  %9 = getelementptr inbounds %struct.adc_stream, ptr %8, i32 0, i32 9
  %10 = load i16, ptr %9, align 4
  %11 = zext i16 %10 to i32
  %12 = icmp ne i32 %11, 0
  br i1 %12, label %13, label %14

13:                                               ; preds = %7
  store i32 -2, ptr %2, align 4
  br label %37

14:                                               ; preds = %7
  %15 = call noalias ptr @calloc(i64 noundef 65536, i64 noundef 1) #4
  %16 = load ptr, ptr %3, align 8
  %17 = getelementptr inbounds %struct.adc_stream, ptr %16, i32 0, i32 6
  store ptr %15, ptr %17, align 8
  %18 = load ptr, ptr %3, align 8
  %19 = getelementptr inbounds %struct.adc_stream, ptr %18, i32 0, i32 6
  %20 = load ptr, ptr %19, align 8
  %21 = icmp eq ptr %20, null
  br i1 %21, label %22, label %23

22:                                               ; preds = %14
  store i32 -1, ptr %2, align 4
  br label %37

23:                                               ; preds = %14
  %24 = load ptr, ptr %3, align 8
  %25 = getelementptr inbounds %struct.adc_stream, ptr %24, i32 0, i32 8
  store i32 0, ptr %25, align 8
  %26 = load ptr, ptr %3, align 8
  %27 = getelementptr inbounds %struct.adc_stream, ptr %26, i32 0, i32 9
  store i16 1, ptr %27, align 4
  %28 = load ptr, ptr %3, align 8
  %29 = getelementptr inbounds %struct.adc_stream, ptr %28, i32 0, i32 10
  store i16 0, ptr %29, align 2
  %30 = load ptr, ptr %3, align 8
  %31 = getelementptr inbounds %struct.adc_stream, ptr %30, i32 0, i32 11
  store i32 0, ptr %31, align 8
  %32 = load ptr, ptr %3, align 8
  %33 = getelementptr inbounds %struct.adc_stream, ptr %32, i32 0, i32 6
  %34 = load ptr, ptr %33, align 8
  %35 = load ptr, ptr %3, align 8
  %36 = getelementptr inbounds %struct.adc_stream, ptr %35, i32 0, i32 7
  store ptr %34, ptr %36, align 8
  store i32 0, ptr %2, align 4
  br label %37

37:                                               ; preds = %23, %22, %13, %6
  %38 = load i32, ptr %2, align 4
  ret i32 %38
}