; Function Attrs: mustprogress nofree nounwind willreturn memory(argmem: readwrite, inaccessiblemem: readwrite) uwtable
define noundef i32 @adc_decompressInit(ptr noundef %0) local_unnamed_addr #0 {
  %2 = icmp eq ptr %0, null
  br i1 %2, label %15, label %3

3:                                                ; preds = %1
  %4 = getelementptr inbounds i8, ptr %0, i64 68
  %5 = load i16, ptr %4, align 4
  %.not = icmp eq i16 %5, 0
  br i1 %.not, label %6, label %15

6:                                                ; preds = %3
  %7 = tail call noalias dereferenceable_or_null(65536) ptr @calloc(i64 noundef 65536, i64 noundef 1) #7
  %8 = getelementptr inbounds i8, ptr %0, i64 48
  store ptr %7, ptr %8, align 8
  %9 = icmp eq ptr %7, null
  br i1 %9, label %15, label %10

10:                                               ; preds = %6
  %11 = getelementptr inbounds i8, ptr %0, i64 64
  store i32 0, ptr %11, align 8
  store i16 1, ptr %4, align 4
  %12 = getelementptr inbounds i8, ptr %0, i64 70
  store i16 0, ptr %12, align 2
  %13 = getelementptr inbounds i8, ptr %0, i64 72
  store i32 0, ptr %13, align 8
  %14 = getelementptr inbounds i8, ptr %0, i64 56
  store ptr %7, ptr %14, align 8
  br label %15

15:                                               ; preds = %6, %3, %1, %10
  %.0 = phi i32 [ 0, %10 ], [ -3, %1 ], [ -2, %3 ], [ -1, %6 ]
  ret i32 %.0
}